target datalayout = "e-m:e-p270:32:32-p271:32:32-p272:64:64-i64:64-i128:128-f80:128-n8:16:32:64-S128"
target triple = "x86_64-pc-linux-gnu"

%"class.std::__cxx11::basic_string" = type { %"struct.std::__cxx11::basic_string<char>::_Alloc_hider", i64, %union.anon }
%"struct.std::__cxx11::basic_string<char>::_Alloc_hider" = type { ptr }
%union.anon = type { i64, [8 x i8] }
%"class.std::__cxx11::basic_ostringstream" = type { %"class.std::basic_ostream.base", %"class.std::__cxx11::basic_stringbuf", %"class.std::basic_ios" }
%"class.std::basic_ostream.base" = type { ptr }
%"class.std::__cxx11::basic_stringbuf" = type { %"class.std::basic_streambuf", i32, %"class.std::__cxx11::basic_string" }
%"class.std::basic_streambuf" = type { ptr, ptr, ptr, ptr, ptr, ptr, ptr, %"class.std::locale" }
%"class.std::locale" = type { ptr }
%"class.std::basic_ios" = type { %"class.std::ios_base", ptr, i8, i8, ptr, ptr, ptr, ptr }
%"class.std::ios_base" = type { ptr, i64, i64, i32, i32, i32, ptr, %"struct.std::ios_base::_Words", [8 x %"struct.std::ios_base::_Words"], i32, ptr, %"class.std::locale" }
%"struct.std::ios_base::_Words" = type { ptr, i64 }

@.str.20 = private unnamed_addr constant [30 x i8] c"Attempt to add link library \22\00", align 1
@.str.21 = private unnamed_addr constant [14 x i8] c"\22 to target \22\00", align 1
@.str.22 = private unnamed_addr constant [40 x i8] c"\22 which is not built in this directory.\00", align 1
@.str.23 = private unnamed_addr constant [9 x i8] c"Target \22\00", align 1
@.str.24 = private unnamed_addr constant [11 x i8] c"\22 of type \00", align 1
@.str.25 = private unnamed_addr constant [42 x i8] c" may not be linked into another target.  \00", align 1
@.str.26 = private unnamed_addr constant [53 x i8] c"One may link only to STATIC or SHARED libraries, or \00", align 1
@.str.27 = private unnamed_addr constant [53 x i8] c"to executables with the ENABLE_EXPORTS property set.\00", align 1

; Function Attrs: mustprogress uwtable
define internal void @_ZL14addLinkLibraryP10cmMakefileRKNSt7__cxx1112basic_stringIcSt11char_traitsIcESaIcEEES8_23cmTargetLinkLibraryType(ptr noundef %0, ptr noundef nonnull align 8 dereferenceable(32) %1, ptr noundef nonnull align 8 dereferenceable(32) %2, i32 noundef %3) #5 personality ptr @__gxx_personality_v0 {
  %5 = alloca ptr, align 8
  %6 = alloca ptr, align 8
  %7 = alloca ptr, align 8
  %8 = alloca i32, align 4
  %9 = alloca ptr, align 8
  %10 = alloca %"class.std::__cxx11::basic_ostringstream", align 8
  %11 = alloca ptr, align 8
  %12 = alloca i32, align 4
  %13 = alloca %"class.std::__cxx11::basic_string", align 8
  %14 = alloca ptr, align 8
  %15 = alloca %"class.std::__cxx11::basic_ostringstream", align 8
  %16 = alloca %"class.std::__cxx11::basic_string", align 8
  store ptr %0, ptr %5, align 8
  store ptr %1, ptr %6, align 8
  store ptr %2, ptr %7, align 8
  store i32 %3, ptr %8, align 4
  %17 = load ptr, ptr %5, align 8
  %18 = load ptr, ptr %6, align 8
  %19 = call noundef ptr @_ZNK10cmMakefile23FindLocalNonAliasTargetERKNSt7__cxx1112basic_stringIcSt11char_traitsIcESaIcEEE(ptr noundef nonnull align 8 dereferenceable(3520) %17, ptr noundef nonnull align 8 dereferenceable(32) %18)
  store ptr %19, ptr %9, align 8
  %20 = load ptr, ptr %9, align 8
  %21 = icmp ne ptr %20, null
  br i1 %21, label %47, label %22

22:                                               ; preds = %4
  call void @_ZNSt7__cxx1119basic_ostringstreamIcSt11char_traitsIcESaIcEEC1Ev(ptr noundef nonnull align 8 dereferenceable(112) %10)
  %23 = invoke noundef nonnull align 8 dereferenceable(8) ptr @_ZStlsISt11char_traitsIcEERSt13basic_ostreamIcT_ES5_PKc(ptr noundef nonnull align 8 dereferenceable(8) %10, ptr noundef @.str.20)
          to label %24 unwind label %38

24:                                               ; preds = %22
  %25 = load ptr, ptr %7, align 8
  %26 = invoke noundef nonnull align 8 dereferenceable(8) ptr @_ZStlsIcSt11char_traitsIcESaIcEERSt13basic_ostreamIT_T0_ES7_RKNSt7__cxx1112basic_stringIS4_S5_T1_EE(ptr noundef nonnull align 8 dereferenceable(8) %23, ptr noundef nonnull align 8 dereferenceable(32) %25)
          to label %27 unwind label %38

27:                                               ; preds = %24
  %28 = invoke noundef nonnull align 8 dereferenceable(8) ptr @_ZStlsISt11char_traitsIcEERSt13basic_ostreamIcT_ES5_PKc(ptr noundef nonnull align 8 dereferenceable(8) %26, ptr noundef @.str.21)
          to label %29 unwind label %38

29:                                               ; preds = %27
  %30 = load ptr, ptr %6, align 8
  %31 = invoke noundef nonnull align 8 dereferenceable(8) ptr @_ZStlsIcSt11char_traitsIcESaIcEERSt13basic_ostreamIT_T0_ES7_RKNSt7__cxx1112basic_stringIS4_S5_T1_EE(ptr noundef nonnull align 8 dereferenceable(8) %28, ptr noundef nonnull align 8 dereferenceable(32) %30)
          to label %32 unwind label %38

32:                                               ; preds = %29
  %33 = invoke noundef nonnull align 8 dereferenceable(8) ptr @_ZStlsISt11char_traitsIcEERSt13basic_ostreamIcT_ES5_PKc(ptr noundef nonnull align 8 dereferenceable(8) %31, ptr noundef @.str.22)
          to label %34 unwind label %38

34:                                               ; preds = %32
  %35 = load ptr, ptr %5, align 8
  invoke void @_ZNKSt7__cxx1119basic_ostringstreamIcSt11char_traitsIcESaIcEE3strEv(ptr dead_on_unwind writable sret(%"class.std::__cxx11::basic_string") align 8 %13, ptr noundef nonnull align 8 dereferenceable(112) %10)
          to label %36 unwind label %38

36:                                               ; preds = %34
  invoke void @_ZNK10cmMakefile12IssueMessageE11MessageTypeRKNSt7__cxx1112basic_stringIcSt11char_traitsIcESaIcEEE(ptr noundef nonnull align 8 dereferenceable(3520) %35, i32 noundef 2, ptr noundef nonnull align 8 dereferenceable(32) %13)
          to label %37 unwind label %42

37:                                               ; preds = %36
  call void @_ZNSt7__cxx1112basic_stringIcSt11char_traitsIcESaIcEED1Ev(ptr noundef nonnull align 8 dereferenceable(32) %13) #3
  call void @_ZNSt7__cxx1119basic_ostringstreamIcSt11char_traitsIcESaIcEED1Ev(ptr noundef nonnull align 8 dereferenceable(112) %10) #3
  br label %107

38:                                               ; preds = %34, %32, %29, %27, %24, %22
  %39 = landingpad { ptr, i32 }
          cleanup
  %40 = extractvalue { ptr, i32 } %39, 0
  store ptr %40, ptr %11, align 8
  %41 = extractvalue { ptr, i32 } %39, 1
  store i32 %41, ptr %12, align 4
  br label %46

42:                                               ; preds = %36
  %43 = landingpad { ptr, i32 }
          cleanup
  %44 = extractvalue { ptr, i32 } %43, 0
  store ptr %44, ptr %11, align 8
  %45 = extractvalue { ptr, i32 } %43, 1
  store i32 %45, ptr %12, align 4
  call void @_ZNSt7__cxx1112basic_stringIcSt11char_traitsIcESaIcEED1Ev(ptr noundef nonnull align 8 dereferenceable(32) %13) #3
  br label %46

46:                                               ; preds = %42, %38
  call void @_ZNSt7__cxx1119basic_ostringstreamIcSt11char_traitsIcESaIcEED1Ev(ptr noundef nonnull align 8 dereferenceable(112) %10) #3
  br label %108

47:                                               ; preds = %4
  %48 = load ptr, ptr %5, align 8
  %49 = call noundef ptr @_ZNK10cmMakefile18GetGlobalGeneratorEv(ptr noundef nonnull align 8 dereferenceable(3520) %48)
  %50 = load ptr, ptr %7, align 8
  %51 = call noundef ptr @_ZNK17cmGlobalGenerator10FindTargetERKNSt7__cxx1112basic_stringIcSt11char_traitsIcESaIcEEEb(ptr noundef nonnull align 8 dereferenceable(1778) %49, ptr noundef nonnull align 8 dereferenceable(32) %50, i1 noundef zeroext false)
  store ptr %51, ptr %14, align 8
  %52 = load ptr, ptr %14, align 8
  %53 = icmp ne ptr %52, null
  br i1 %53, label %54, label %102

54:                                               ; preds = %47
  %55 = load ptr, ptr %14, align 8
  %56 = call noundef i32 @_ZNK8cmTarget7GetTypeEv(ptr noundef nonnull align 8 dereferenceable(8) %55)
  %57 = icmp ne i32 %56, 1
  br i1 %57, label %58, label %102

58:                                               ; preds = %54
  %59 = load ptr, ptr %14, align 8
  %60 = call noundef i32 @_ZNK8cmTarget7GetTypeEv(ptr noundef nonnull align 8 dereferenceable(8) %59)
  %61 = icmp ne i32 %60, 2
  br i1 %61, label %62, label %102

62:                                               ; preds = %58
  %63 = load ptr, ptr %14, align 8
  %64 = call noundef i32 @_ZNK8cmTarget7GetTypeEv(ptr noundef nonnull align 8 dereferenceable(8) %63)
  %65 = icmp ne i32 %64, 7
  br i1 %65, label %66, label %102

66:                                               ; preds = %62
  %67 = load ptr, ptr %14, align 8
  %68 = call noundef zeroext i1 @_ZNK8cmTarget23IsExecutableWithExportsEv(ptr noundef nonnull align 8 dereferenceable(8) %67)
  br i1 %68, label %102, label %69

69:                                               ; preds = %66
  call void @_ZNSt7__cxx1119basic_ostringstreamIcSt11char_traitsIcESaIcEEC1Ev(ptr noundef nonnull align 8 dereferenceable(112) %15)
  %70 = invoke noundef nonnull align 8 dereferenceable(8) ptr @_ZStlsISt11char_traitsIcEERSt13basic_ostreamIcT_ES5_PKc(ptr noundef nonnull align 8 dereferenceable(8) %15, ptr noundef @.str.23)
          to label %71 unwind label %93

71:                                               ; preds = %69
  %72 = load ptr, ptr %7, align 8
  %73 = invoke noundef nonnull align 8 dereferenceable(8) ptr @_ZStlsIcSt11char_traitsIcESaIcEERSt13basic_ostreamIT_T0_ES7_RKNSt7__cxx1112basic_stringIS4_S5_T1_EE(ptr noundef nonnull align 8 dereferenceable(8) %70, ptr noundef nonnull align 8 dereferenceable(32) %72)
          to label %74 unwind label %93

74:                                               ; preds = %71
  %75 = invoke noundef nonnull align 8 dereferenceable(8) ptr @_ZStlsISt11char_traitsIcEERSt13basic_ostreamIcT_ES5_PKc(ptr noundef nonnull align 8 dereferenceable(8) %73, ptr noundef @.str.24)
          to label %76 unwind label %93

76:                                               ; preds = %74
  %77 = load ptr, ptr %14, align 8
  %78 = invoke noundef i32 @_ZNK8cmTarget7GetTypeEv(ptr noundef nonnull align 8 dereferenceable(8) %77)
          to label %79 unwind label %93

79:                                               ; preds = %76
  %80 = invoke noundef nonnull align 8 dereferenceable(32) ptr @_ZN7cmState17GetTargetTypeNameB5cxx11EN12cmStateEnums10TargetTypeE(i32 noundef %78)
          to label %81 unwind label %93

81:                                               ; preds = %79
  %82 = invoke noundef nonnull align 8 dereferenceable(8) ptr @_ZStlsIcSt11char_traitsIcESaIcEERSt13basic_ostreamIT_T0_ES7_RKNSt7__cxx1112basic_stringIS4_S5_T1_EE(ptr noundef nonnull align 8 dereferenceable(8) %75, ptr noundef nonnull align 8 dereferenceable(32) %80)
          to label %83 unwind label %93

83:                                               ; preds = %81
  %84 = invoke noundef nonnull align 8 dereferenceable(8) ptr @_ZStlsISt11char_traitsIcEERSt13basic_ostreamIcT_ES5_PKc(ptr noundef nonnull align 8 dereferenceable(8) %82, ptr noundef @.str.25)
          to label %85 unwind label %93

85:                                               ; preds = %83
  %86 = invoke noundef nonnull align 8 dereferenceable(8) ptr @_ZStlsISt11char_traitsIcEERSt13basic_ostreamIcT_ES5_PKc(ptr noundef nonnull align 8 dereferenceable(8) %84, ptr noundef @.str.26)
          to label %87 unwind label %93

87:                                               ; preds = %85
  %88 = invoke noundef nonnull align 8 dereferenceable(8) ptr @_ZStlsISt11char_traitsIcEERSt13basic_ostreamIcT_ES5_PKc(ptr noundef nonnull align 8 dereferenceable(8) %86, ptr noundef @.str.27)
          to label %89 unwind label %93

89:                                               ; preds = %87
  %90 = load ptr, ptr %5, align 8
  invoke void @_ZNKSt7__cxx1119basic_ostringstreamIcSt11char_traitsIcESaIcEE3strEv(ptr dead_on_unwind writable sret(%"class.std::__cxx11::basic_string") align 8 %16, ptr noundef nonnull align 8 dereferenceable(112) %15)
          to label %91 unwind label %93

91:                                               ; preds = %89
  invoke void @_ZNK10cmMakefile12IssueMessageE11MessageTypeRKNSt7__cxx1112basic_stringIcSt11char_traitsIcESaIcEEE(ptr noundef nonnull align 8 dereferenceable(3520) %90, i32 noundef 2, ptr noundef nonnull align 8 dereferenceable(32) %16)
          to label %92 unwind label %97

92:                                               ; preds = %91
  call void @_ZNSt7__cxx1112basic_stringIcSt11char_traitsIcESaIcEED1Ev(ptr noundef nonnull align 8 dereferenceable(32) %16) #3
  call void @_ZNSt7__cxx1119basic_ostringstreamIcSt11char_traitsIcESaIcEED1Ev(ptr noundef nonnull align 8 dereferenceable(112) %15) #3
  br label %102

93:                                               ; preds = %89, %87, %85, %83, %81, %79, %76, %74, %71, %69
  %94 = landingpad { ptr, i32 }
          cleanup
  %95 = extractvalue { ptr, i32 } %94, 0
  store ptr %95, ptr %11, align 8
  %96 = extractvalue { ptr, i32 } %94, 1
  store i32 %96, ptr %12, align 4
  br label %101

97:                                               ; preds = %91
  %98 = landingpad { ptr, i32 }
          cleanup
  %99 = extractvalue { ptr, i32 } %98, 0
  store ptr %99, ptr %11, align 8
  %100 = extractvalue { ptr, i32 } %98, 1
  store i32 %100, ptr %12, align 4
  call void @_ZNSt7__cxx1112basic_stringIcSt11char_traitsIcESaIcEED1Ev(ptr noundef nonnull align 8 dereferenceable(32) %16) #3
  br label %101

101:                                              ; preds = %97, %93
  call void @_ZNSt7__cxx1119basic_ostringstreamIcSt11char_traitsIcESaIcEED1Ev(ptr noundef nonnull align 8 dereferenceable(112) %15) #3
  br label %108

102:                                              ; preds = %92, %66, %62, %58, %54, %47
  %103 = load ptr, ptr %9, align 8
  %104 = load ptr, ptr %5, align 8
  %105 = load ptr, ptr %7, align 8
  %106 = load i32, ptr %8, align 4
  call void @_ZN8cmTarget14AddLinkLibraryER10cmMakefileRKNSt7__cxx1112basic_stringIcSt11char_traitsIcESaIcEEE23cmTargetLinkLibraryType(ptr noundef nonnull align 8 dereferenceable(8) %103, ptr noundef nonnull align 8 dereferenceable(3520) %104, ptr noundef nonnull align 8 dereferenceable(32) %105, i32 noundef %106)
  br label %107

107:                                              ; preds = %102, %37
  ret void

108:                                              ; preds = %101, %46
  %109 = load ptr, ptr %11, align 8
  %110 = load i32, ptr %12, align 4
  %111 = insertvalue { ptr, i32 } poison, ptr %109, 0
  %112 = insertvalue { ptr, i32 } %111, i32 %110, 1
  resume { ptr, i32 } %112
}