; Function Attrs: mustprogress uwtable
define internal fastcc void @_ZL14addLinkLibraryP10cmMakefileRKNSt7__cxx1112basic_stringIcSt11char_traitsIcESaIcEEES8_23cmTargetLinkLibraryType(ptr noundef nonnull %0, ptr noundef nonnull align 8 dereferenceable(32) %1, ptr noundef nonnull align 8 dereferenceable(32) %2, i32 noundef %3) unnamed_addr #6 personality ptr @__gxx_personality_v0 {
  %5 = alloca %"class.std::__cxx11::basic_ostringstream", align 8
  %6 = alloca %"class.std::__cxx11::basic_string", align 8
  %7 = alloca %"class.std::__cxx11::basic_ostringstream", align 8
  %8 = alloca %"class.std::__cxx11::basic_string", align 8
  %9 = tail call noundef ptr @_ZNK10cmMakefile23FindLocalNonAliasTargetERKNSt7__cxx1112basic_stringIcSt11char_traitsIcESaIcEEE(ptr noundef nonnull align 8 dereferenceable(3520) %0, ptr noundef nonnull align 8 dereferenceable(32) %1)
  %.not = icmp eq ptr %9, null
  br i1 %.not, label %10, label %27

10:                                               ; preds = %4
  call void @_ZNSt7__cxx1119basic_ostringstreamIcSt11char_traitsIcESaIcEEC1Ev(ptr noundef nonnull align 8 dereferenceable(112) %5)
  %11 = invoke noundef nonnull align 8 dereferenceable(8) ptr @_ZStlsISt11char_traitsIcEERSt13basic_ostreamIcT_ES5_PKc(ptr noundef nonnull align 8 dereferenceable(8) %5, ptr noundef nonnull @.str.20)
          to label %12 unwind label %23

12:                                               ; preds = %10
  %13 = invoke noundef nonnull align 8 dereferenceable(8) ptr @_ZStlsIcSt11char_traitsIcESaIcEERSt13basic_ostreamIT_T0_ES7_RKNSt7__cxx1112basic_stringIS4_S5_T1_EE(ptr noundef nonnull align 8 dereferenceable(8) %11, ptr noundef nonnull align 8 dereferenceable(32) %2)
          to label %14 unwind label %23

14:                                               ; preds = %12
  %15 = invoke noundef nonnull align 8 dereferenceable(8) ptr @_ZStlsISt11char_traitsIcEERSt13basic_ostreamIcT_ES5_PKc(ptr noundef nonnull align 8 dereferenceable(8) %13, ptr noundef nonnull @.str.21)
          to label %16 unwind label %23

16:                                               ; preds = %14
  %17 = invoke noundef nonnull align 8 dereferenceable(8) ptr @_ZStlsIcSt11char_traitsIcESaIcEERSt13basic_ostreamIT_T0_ES7_RKNSt7__cxx1112basic_stringIS4_S5_T1_EE(ptr noundef nonnull align 8 dereferenceable(8) %15, ptr noundef nonnull align 8 dereferenceable(32) %1)
          to label %18 unwind label %23

18:                                               ; preds = %16
  %19 = invoke noundef nonnull align 8 dereferenceable(8) ptr @_ZStlsISt11char_traitsIcEERSt13basic_ostreamIcT_ES5_PKc(ptr noundef nonnull align 8 dereferenceable(8) %17, ptr noundef nonnull @.str.22)
          to label %20 unwind label %23

20:                                               ; preds = %18
  invoke void @_ZNKSt7__cxx1119basic_ostringstreamIcSt11char_traitsIcESaIcEE3strEv(ptr dead_on_unwind nonnull writable sret(%"class.std::__cxx11::basic_string") align 8 %6, ptr noundef nonnull align 8 dereferenceable(112) %5)
          to label %21 unwind label %23

21:                                               ; preds = %20
  invoke void @_ZNK10cmMakefile12IssueMessageE11MessageTypeRKNSt7__cxx1112basic_stringIcSt11char_traitsIcESaIcEEE(ptr noundef nonnull align 8 dereferenceable(3520) %0, i32 noundef 2, ptr noundef nonnull align 8 dereferenceable(32) %6)
          to label %22 unwind label %25

22:                                               ; preds = %21
  call void @_ZNSt7__cxx1112basic_stringIcSt11char_traitsIcESaIcEED1Ev(ptr noundef nonnull align 8 dereferenceable(32) %6) #30
  call void @_ZNSt7__cxx1119basic_ostringstreamIcSt11char_traitsIcESaIcEED1Ev(ptr noundef nonnull align 8 dereferenceable(112) %5) #30
  br label %64

23:                                               ; preds = %20, %18, %16, %14, %12, %10
  %24 = landingpad { ptr, i32 }
          cleanup
  br label %65

25:                                               ; preds = %21
  %26 = landingpad { ptr, i32 }
          cleanup
  call void @_ZNSt7__cxx1112basic_stringIcSt11char_traitsIcESaIcEED1Ev(ptr noundef nonnull align 8 dereferenceable(32) %6) #30
  br label %65

27:                                               ; preds = %4
  %28 = tail call noundef ptr @_ZNK10cmMakefile18GetGlobalGeneratorEv(ptr noundef nonnull align 8 dereferenceable(3520) %0)
  %29 = tail call noundef ptr @_ZNK17cmGlobalGenerator10FindTargetERKNSt7__cxx1112basic_stringIcSt11char_traitsIcESaIcEEEb(ptr noundef nonnull align 8 dereferenceable(1778) %28, ptr noundef nonnull align 8 dereferenceable(32) %2, i1 noundef zeroext false)
  %.not27 = icmp eq ptr %29, null
  br i1 %.not27, label %63, label %30

30:                                               ; preds = %27
  %31 = tail call noundef i32 @_ZNK8cmTarget7GetTypeEv(ptr noundef nonnull align 8 dereferenceable(8) %29)
  %.not28 = icmp eq i32 %31, 1
  br i1 %.not28, label %63, label %32

32:                                               ; preds = %30
  %33 = tail call noundef i32 @_ZNK8cmTarget7GetTypeEv(ptr noundef nonnull align 8 dereferenceable(8) %29)
  %.not29 = icmp eq i32 %33, 2
  br i1 %.not29, label %63, label %34

34:                                               ; preds = %32
  %35 = tail call noundef i32 @_ZNK8cmTarget7GetTypeEv(ptr noundef nonnull align 8 dereferenceable(8) %29)
  %.not30 = icmp eq i32 %35, 7
  br i1 %.not30, label %63, label %36

36:                                               ; preds = %34
  %37 = tail call noundef zeroext i1 @_ZNK8cmTarget23IsExecutableWithExportsEv(ptr noundef nonnull align 8 dereferenceable(8) %29)
  br i1 %37, label %63, label %38

38:                                               ; preds = %36
  call void @_ZNSt7__cxx1119basic_ostringstreamIcSt11char_traitsIcESaIcEEC1Ev(ptr noundef nonnull align 8 dereferenceable(112) %7)
  %39 = invoke noundef nonnull align 8 dereferenceable(8) ptr @_ZStlsISt11char_traitsIcEERSt13basic_ostreamIcT_ES5_PKc(ptr noundef nonnull align 8 dereferenceable(8) %7, ptr noundef nonnull @.str.23)
          to label %40 unwind label %59

40:                                               ; preds = %38
  %41 = invoke noundef nonnull align 8 dereferenceable(8) ptr @_ZStlsIcSt11char_traitsIcESaIcEERSt13basic_ostreamIT_T0_ES7_RKNSt7__cxx1112basic_stringIS4_S5_T1_EE(ptr noundef nonnull align 8 dereferenceable(8) %39, ptr noundef nonnull align 8 dereferenceable(32) %2)
          to label %42 unwind label %59

42:                                               ; preds = %40
  %43 = invoke noundef nonnull align 8 dereferenceable(8) ptr @_ZStlsISt11char_traitsIcEERSt13basic_ostreamIcT_ES5_PKc(ptr noundef nonnull align 8 dereferenceable(8) %41, ptr noundef nonnull @.str.24)
          to label %44 unwind label %59

44:                                               ; preds = %42
  %45 = invoke noundef i32 @_ZNK8cmTarget7GetTypeEv(ptr noundef nonnull align 8 dereferenceable(8) %29)
          to label %46 unwind label %59

46:                                               ; preds = %44
  %47 = invoke noundef nonnull align 8 dereferenceable(32) ptr @_ZN7cmState17GetTargetTypeNameB5cxx11EN12cmStateEnums10TargetTypeE(i32 noundef %45)
          to label %48 unwind label %59

48:                                               ; preds = %46
  %49 = invoke noundef nonnull align 8 dereferenceable(8) ptr @_ZStlsIcSt11char_traitsIcESaIcEERSt13basic_ostreamIT_T0_ES7_RKNSt7__cxx1112basic_stringIS4_S5_T1_EE(ptr noundef nonnull align 8 dereferenceable(8) %43, ptr noundef nonnull align 8 dereferenceable(32) %47)
          to label %50 unwind label %59

50:                                               ; preds = %48
  %51 = invoke noundef nonnull align 8 dereferenceable(8) ptr @_ZStlsISt11char_traitsIcEERSt13basic_ostreamIcT_ES5_PKc(ptr noundef nonnull align 8 dereferenceable(8) %49, ptr noundef nonnull @.str.25)
          to label %52 unwind label %59

52:                                               ; preds = %50
  %53 = invoke noundef nonnull align 8 dereferenceable(8) ptr @_ZStlsISt11char_traitsIcEERSt13basic_ostreamIcT_ES5_PKc(ptr noundef nonnull align 8 dereferenceable(8) %51, ptr noundef nonnull @.str.26)
          to label %54 unwind label %59

54:                                               ; preds = %52
  %55 = invoke noundef nonnull align 8 dereferenceable(8) ptr @_ZStlsISt11char_traitsIcEERSt13basic_ostreamIcT_ES5_PKc(ptr noundef nonnull align 8 dereferenceable(8) %53, ptr noundef nonnull @.str.27)
          to label %56 unwind label %59

56:                                               ; preds = %54
  invoke void @_ZNKSt7__cxx1119basic_ostringstreamIcSt11char_traitsIcESaIcEE3strEv(ptr dead_on_unwind nonnull writable sret(%"class.std::__cxx11::basic_string") align 8 %8, ptr noundef nonnull align 8 dereferenceable(112) %7)
          to label %57 unwind label %59

57:                                               ; preds = %56
  invoke void @_ZNK10cmMakefile12IssueMessageE11MessageTypeRKNSt7__cxx1112basic_stringIcSt11char_traitsIcESaIcEEE(ptr noundef nonnull align 8 dereferenceable(3520) %0, i32 noundef 2, ptr noundef nonnull align 8 dereferenceable(32) %8)
          to label %58 unwind label %61

58:                                               ; preds = %57
  call void @_ZNSt7__cxx1112basic_stringIcSt11char_traitsIcESaIcEED1Ev(ptr noundef nonnull align 8 dereferenceable(32) %8) #30
  call void @_ZNSt7__cxx1119basic_ostringstreamIcSt11char_traitsIcESaIcEED1Ev(ptr noundef nonnull align 8 dereferenceable(112) %7) #30
  br label %63

59:                                               ; preds = %56, %54, %52, %50, %48, %46, %44, %42, %40, %38
  %60 = landingpad { ptr, i32 }
          cleanup
  br label %65

61:                                               ; preds = %57
  %62 = landingpad { ptr, i32 }
          cleanup
  call void @_ZNSt7__cxx1112basic_stringIcSt11char_traitsIcESaIcEED1Ev(ptr noundef nonnull align 8 dereferenceable(32) %8) #30
  br label %65

63:                                               ; preds = %58, %36, %34, %32, %30, %27
  call void @_ZN8cmTarget14AddLinkLibraryER10cmMakefileRKNSt7__cxx1112basic_stringIcSt11char_traitsIcESaIcEEE23cmTargetLinkLibraryType(ptr noundef nonnull align 8 dereferenceable(8) %9, ptr noundef nonnull align 8 dereferenceable(3520) %0, ptr noundef nonnull align 8 dereferenceable(32) %2, i32 noundef %3)
  br label %64

64:                                               ; preds = %63, %22
  ret void

65:                                               ; preds = %59, %61, %23, %25
  %.sink = phi ptr [ %5, %25 ], [ %5, %23 ], [ %7, %61 ], [ %7, %59 ]
  %.pn31.pn = phi { ptr, i32 } [ %26, %25 ], [ %24, %23 ], [ %62, %61 ], [ %60, %59 ]
  call void @_ZNSt7__cxx1119basic_ostringstreamIcSt11char_traitsIcESaIcEED1Ev(ptr noundef nonnull align 8 dereferenceable(112) %.sink) #30
  resume { ptr, i32 } %.pn31.pn
}